Certificate:
    Data:
        Version: 1 (0x0)
        Serial Number: 11049513299668788112 (0x9957c1cd9fb66390)
    Signature Algorithm: ecdsa-with-SHA256
        Issuer: C=US, ST=CA, L=Sunnyvale, O=My Test Company, OU=athenz.syncer, CN=athenz.syncer
        Validity
            Not Before: Mar 17 21:31:48 2022 GMT
            Not After : Dec 11 21:31:48 2024 GMT
        Subject: C=US, ST=CA, L=Sunnyvale, O=My Test Company, OU=athenz.syncer, CN=athenz.syncer
        Subject Public Key Info:
            Public Key Algorithm: id-ecPublicKey
                Public-Key: (256 bit)
                pub:
                    04:54:c5:91:d4:48:49:ae:3d:27:a2:a5:9a:7c:01:
                    9a:d6:11:3e:22:d4:9f:b6:01:84:49:1f:2f:7d:7f:
                    45:ef:74:9a:8d:2a:fc:b4:ab:08:f4:69:a6:44:5d:
                    14:e2:ab:c9:da:0c:1b:47:17:74:10:0a:e4:6a:02:
                    83:5e:d1:3c:fd
                ASN1 OID: prime256v1
                NIST CURVE: P-256
    Signature Algorithm: ecdsa-with-SHA256
         30:45:02:21:00:ce:5d:15:ca:64:93:9c:d8:43:70:80:ba:78:
         bb:7c:f0:bf:55:9e:65:7b:91:af:c2:21:13:73:94:e4:9e:d6:
         e2:02:20:50:9f:9f:bf:c8:1c:f0:bf:08:b9:76:1f:81:2f:76:
         72:f8:b5:53:e3:66:da:e7:2e:70:20:e9:1c:90:5a:4e:dd
-----BEGIN CERTIFICATE-----
MIIB4DCCAYYCCQCZV8HNn7ZjkDAKBggqhkjOPQQDAjB4MQswCQYDVQQGEwJVUzEL
MAkGA1UECAwCQ0ExEjAQBgNVBAcMCVN1bm55dmFsZTEYMBYGA1UECgwPTXkgVGVz
dCBDb21wYW55MRYwFAYDVQQLDA1hdGhlbnouc3luY2VyMRYwFAYDVQQDDA1hdGhl
bnouc3luY2VyMB4XDTIyMDMxNzIxMzE0OFoXDTI0MTIxMTIxMzE0OFoweDELMAkG
A1UEBhMCVVMxCzAJBgNVBAgMAkNBMRIwEAYDVQQHDAlTdW5ueXZhbGUxGDAWBgNV
BAoMD015IFRlc3QgQ29tcGFueTEWMBQGA1UECwwNYXRoZW56LnN5bmNlcjEWMBQG
A1UEAwwNYXRoZW56LnN5bmNlcjBZMBMGByqGSM49AgEGCCqGSM49AwEHA0IABFTF
kdRISa49J6KlmnwBmtYRPiLUn7YBhEkfL31/Re90mo0q/LSrCPRppkRdFOKrydoM
G0cXdBAK5GoCg17RPP0wCgYIKoZIzj0EAwIDSAAwRQIhAM5dFcpkk5zYQ3CAuni7
fPC/VZ5le5GvwiETc5TkntbiAiBQn5+/yBzwvwi5dh+BL3Zy+LVT42ba5y5wIOkc
kFpO3Q==
-----END CERTIFICATE-----