Certificate:
    Data:
        Version: 1 (0x0)
        Serial Number: 11571538900354478771 (0xa0965d523c3e32b3)
    Signature Algorithm: ecdsa-with-SHA256
        Issuer: C=US, ST=CA, L=Sunnyvale, O=My Test Company, OU=athenz.syncer, CN=athenz.syncer
        Validity
            Not Before: Mar 17 21:10:08 2022 GMT
            Not After : Apr 16 21:10:08 2022 GMT
        Subject: C=US, ST=CA, L=Sunnyvale, O=My Test Company, OU=athenz.syncer, CN=athenz.syncer
        Subject Public Key Info:
            Public Key Algorithm: id-ecPublicKey
                Public-Key: (256 bit)
                pub:
                    04:0a:1f:af:76:0d:1b:d7:27:c1:e0:ca:6e:df:12:
                    6c:23:bc:e9:6a:70:3d:bf:3e:01:c2:84:0e:ec:09:
                    9d:8d:1e:1a:a3:0b:e6:38:ba:88:3e:a1:0e:6c:0c:
                    e4:a5:5b:d5:33:c6:bc:dc:da:cc:96:ce:40:9d:26:
                    ea:d9:e3:32:6c
                ASN1 OID: prime256v1
                NIST CURVE: P-256
    Signature Algorithm: ecdsa-with-SHA256
         30:46:02:21:00:be:0f:a5:74:9f:4c:18:9a:44:47:e7:fa:f2:
         f3:1f:8b:02:ff:25:89:a8:ef:42:e0:87:52:d7:d5:7d:01:24:
         fb:02:21:00:fc:7a:c7:46:a5:87:8b:ca:12:e0:f4:52:f1:ff:
         2a:19:99:2a:a8:27:7b:7e:30:27:ef:7a:14:f5:11:ed:ed:c7
-----BEGIN CERTIFICATE-----
MIIB4TCCAYYCCQCgll1SPD4yszAKBggqhkjOPQQDAjB4MQswCQYDVQQGEwJVUzEL
MAkGA1UECAwCQ0ExEjAQBgNVBAcMCVN1bm55dmFsZTEYMBYGA1UECgwPTXkgVGVz
dCBDb21wYW55MRYwFAYDVQQLDA1hdGhlbnouc3luY2VyMRYwFAYDVQQDDA1hdGhl
bnouc3luY2VyMB4XDTIyMDMxNzIxMTAwOFoXDTIyMDQxNjIxMTAwOFoweDELMAkG
A1UEBhMCVVMxCzAJBgNVBAgMAkNBMRIwEAYDVQQHDAlTdW5ueXZhbGUxGDAWBgNV
BAoMD015IFRlc3QgQ29tcGFueTEWMBQGA1UECwwNYXRoZW56LnN5bmNlcjEWMBQG
A1UEAwwNYXRoZW56LnN5bmNlcjBZMBMGByqGSM49AgEGCCqGSM49AwEHA0IABAof
r3YNG9cnweDKbt8SbCO86WpwPb8+AcKEDuwJnY0eGqML5ji6iD6hDmwM5KVb1TPG
vNzazJbOQJ0m6tnjMmwwCgYIKoZIzj0EAwIDSQAwRgIhAL4PpXSfTBiaREfn+vLz
H4sC/yWJqO9C4IdS19V9AST7AiEA/HrHRqWHi8oS4PRS8f8qGZkqqCd7fjAn73oU
9RHt7cc=
-----END CERTIFICATE-----

Certificate:
    Data:
        Version: 1 (0x0)
        Serial Number: 17194794662539841440 (0xeea02ea4c6784fa0)
    Signature Algorithm: ecdsa-with-SHA256
        Issuer: C=US, ST=NY, L=New York, O=My Test Company, OU=athenz.syncer, CN=athenz.syncer
        Validity
            Not Before: Mar 17 21:12:39 2022 GMT
            Not After : Apr 16 21:12:39 2022 GMT
        Subject: C=US, ST=NY, L=New York, O=My Test Company, OU=athenz.syncer, CN=athenz.syncer
        Subject Public Key Info:
            Public Key Algorithm: id-ecPublicKey
                Public-Key: (256 bit)
                pub:
                    04:0a:1f:af:76:0d:1b:d7:27:c1:e0:ca:6e:df:12:
                    6c:23:bc:e9:6a:70:3d:bf:3e:01:c2:84:0e:ec:09:
                    9d:8d:1e:1a:a3:0b:e6:38:ba:88:3e:a1:0e:6c:0c:
                    e4:a5:5b:d5:33:c6:bc:dc:da:cc:96:ce:40:9d:26:
                    ea:d9:e3:32:6c
                ASN1 OID: prime256v1
                NIST CURVE: P-256
    Signature Algorithm: ecdsa-with-SHA256
         30:44:02:20:23:d5:8d:f7:74:ac:f4:88:ed:0b:30:ba:b9:35:
         af:02:4c:cf:76:0a:7c:51:72:f7:bb:53:17:6d:79:78:94:12:
         02:20:02:2b:99:8b:30:3b:ee:78:ed:62:51:8c:b2:ca:e8:d2:
         e1:e6:ab:f1:ca:52:6c:2c:47:22:0d:93:bb:fe:4b:b2
-----BEGIN CERTIFICATE-----
MIIB3TCCAYQCCQDuoC6kxnhPoDAKBggqhkjOPQQDAjB3MQswCQYDVQQGEwJVUzEL
MAkGA1UECAwCTlkxETAPBgNVBAcMCE5ldyBZb3JrMRgwFgYDVQQKDA9NeSBUZXN0
IENvbXBhbnkxFjAUBgNVBAsMDWF0aGVuei5zeW5jZXIxFjAUBgNVBAMMDWF0aGVu
ei5zeW5jZXIwHhcNMjIwMzE3MjExMjM5WhcNMjIwNDE2MjExMjM5WjB3MQswCQYD
VQQGEwJVUzELMAkGA1UECAwCTlkxETAPBgNVBAcMCE5ldyBZb3JrMRgwFgYDVQQK
DA9NeSBUZXN0IENvbXBhbnkxFjAUBgNVBAsMDWF0aGVuei5zeW5jZXIxFjAUBgNV
BAMMDWF0aGVuei5zeW5jZXIwWTATBgcqhkjOPQIBBggqhkjOPQMBBwNCAAQKH692
DRvXJ8Hgym7fEmwjvOlqcD2/PgHChA7sCZ2NHhqjC+Y4uog+oQ5sDOSlW9Uzxrzc
2syWzkCdJurZ4zJsMAoGCCqGSM49BAMCA0cAMEQCICPVjfd0rPSI7Qswurk1rwJM
z3YKfFFy97tTF215eJQSAiACK5mLMDvueO1iUYyyyujS4ear8cpSbCxHIg2Tu/5L
sg==
-----END CERTIFICATE-----