Certificate:
    Data:
        Version: 3 (0x2)
        Serial Number: 13984162866592987568 (0xc211ba09307bb9b0)
    Signature Algorithm: sha1WithRSAEncryption
        Issuer: C=US, ST=CA, L=Sunnyvale, O=My Test Company, CN=athenz.syncer
        Validity
            Not Before: Dec  9 21:54:46 2016 GMT
            Not After : Dec  9 21:54:46 2017 GMT
        Subject: C=US, ST=CA, L=Sunnyvale, O=My Test Company, CN=athenz.syncer
        Subject Public Key Info:
            Public Key Algorithm: rsaEncryption
                Public-Key: (512 bit)
                Modulus:
                    00:d2:26:a0:47:83:ec:b5:3e:c7:ac:79:74:09:cd:
                    44:5b:6b:6d:a6:f6:cb:1a:c3:5c:55:dd:c0:a4:31:
                    94:8b:36:3d:67:cb:7a:8d:d7:ab:47:b6:6c:e5:3a:
                    91:00:e0:17:3f:c8:90:c3:77:b4:4c:83:81:0f:cd:
                    bf:47:80:6d:c9
                Exponent: 65537 (0x10001)
        X509v3 extensions:
            X509v3 Subject Key Identifier:
                06:2D:26:B0:C3:57:88:2D:97:2E:92:A3:5C:FC:F5:0C:C7:FD:3E:81
            X509v3 Authority Key Identifier:
                keyid:06:2D:26:B0:C3:57:88:2D:97:2E:92:A3:5C:FC:F5:0C:C7:FD:3E:81
                DirName:/C=US/ST=CA/L=Sunnyvale/O=My Test Company/CN=athenz.syncer
                serial:C2:11:BA:09:30:7B:B9:B0

            X509v3 Basic Constraints:
                CA:TRUE
    Signature Algorithm: sha1WithRSAEncryption
         3e:75:64:51:d8:9c:43:39:35:f3:4f:65:1c:dc:a1:4a:a6:fa:
         a7:e9:31:8c:2e:76:45:f2:3c:6d:9f:a4:00:23:a9:a4:b2:c2:
         a4:db:b7:9e:eb:a1:fb:dc:93:27:55:36:60:b8:c4:ef:be:27:
         e3:cb:bb:e2:4e:c4:12:6b:c9:dc
-----BEGIN CERTIFICATE-----
MIICfzCCAimgAwIBAgIJAMIRugkwe7mwMA0GCSqGSIb3DQEBBQUAMGAxCzAJBgNV
BAYTAlVTMQswCQYDVQQIEwJDQTESMBAGA1UEBxMJU3Vubnl2YWxlMRgwFgYDVQQK
Ew9NeSBUZXN0IENvbXBhbnkxFjAUBgNVBAMTDWF0aGVuei5zeW5jZXIwHhcNMTYx
MjA5MjE1NDQ2WhcNMTcxMjA5MjE1NDQ2WjBgMQswCQYDVQQGEwJVUzELMAkGA1UE
CBMCQ0ExEjAQBgNVBAcTCVN1bm55dmFsZTEYMBYGA1UEChMPTXkgVGVzdCBDb21w
YW55MRYwFAYDVQQDEw1hdGhlbnouc3luY2VyMFwwDQYJKoZIhvcNAQEBBQADSwAw
SAJBANImoEeD7LU+x6x5dAnNRFtrbab2yxrDXFXdwKQxlIs2PWfLeo3Xq0e2bOU6
kQDgFz/IkMN3tEyDgQ/Nv0eAbckCAwEAAaOBxTCBwjAdBgNVHQ4EFgQUBi0msMNX
iC2XLpKjXPz1DMf9PoEwgZIGA1UdIwSBijCBh4AUBi0msMNXiC2XLpKjXPz1DMf9
PoGhZKRiMGAxCzAJBgNVBAYTAlVTMQswCQYDVQQIEwJDQTESMBAGA1UEBxMJU3Vu
bnl2YWxlMRgwFgYDVQQKEw9NeSBUZXN0IENvbXBhbnkxFjAUBgNVBAMTDWF0aGVu
ei5zeW5jZXKCCQDCEboJMHu5sDAMBgNVHRMEBTADAQH/MA0GCSqGSIb3DQEBBQUA
A0EAPnVkUdicQzk1809lHNyhSqb6p+kxjC52RfI8bZ+kACOppLLCpNu3nuuh+9yT
J1U2YLjE774n48u74k7EEmvJ3A==
-----END CERTIFICATE-----
Certificate:
    Data:
        Version: 3 (0x2)
        Serial Number: 12421309962382880561 (0xac615b9990da2f31)
    Signature Algorithm: ecdsa-with-SHA1
        Issuer: C=US, ST=CA, L=Sunnyvale, O=My Test Company, CN=athenz.syncer
        Validity
            Not Before: Dec  9 22:04:57 2016 GMT
            Not After : Dec  9 22:04:57 2017 GMT
        Subject: C=US, ST=CA, L=Sunnyvale, O=My Test Company, CN=athenz.syncer
        Subject Public Key Info:
            Public Key Algorithm: id-ecPublicKey
                Public-Key: (256 bit)
                pub:
                    04:8d:31:eb:01:14:93:94:f4:86:c9:5a:4f:cd:c3:
                    35:5c:b9:af:df:17:9c:6e:c7:02:34:32:9e:30:ab:
                    71:d0:9e:01:37:55:d9:e6:e9:79:fa:81:96:2f:d2:
                    5d:9c:2f:2f:7f:bb:3a:20:f7:31:3a:f2:19:b4:7e:
                    cd:14:85:67:fb
                ASN1 OID: prime256v1
                NIST CURVE: P-256
        X509v3 extensions:
            X509v3 Subject Key Identifier:
                73:50:6E:8F:65:EE:96:E7:31:F4:85:82:AE:38:01:42:35:BA:54:E9
            X509v3 Authority Key Identifier:
                keyid:73:50:6E:8F:65:EE:96:E7:31:F4:85:82:AE:38:01:42:35:BA:54:E9
                DirName:/C=US/ST=CA/L=Sunnyvale/O=My Test Company/CN=athenz.syncer
                serial:AC:61:5B:99:90:DA:2F:31

            X509v3 Basic Constraints:
                CA:TRUE
    Signature Algorithm: ecdsa-with-SHA1
         30:44:02:20:58:f8:a0:a2:34:c8:e4:3e:87:7c:0b:1f:48:b9:
         fc:bd:b1:f3:e3:a2:11:2c:5a:d8:e1:02:12:e9:0c:38:31:c6:
         02:20:69:a2:8d:0a:7e:d2:21:66:32:7a:5a:b2:9f:8d:55:31:
         ac:ef:e2:80:19:aa:b4:7c:6c:b2:ff:aa:59:45:d1:b8
-----BEGIN CERTIFICATE-----
MIICejCCAiKgAwIBAgIJAKxhW5mQ2i8xMAkGByqGSM49BAEwYDELMAkGA1UEBhMC
VVMxCzAJBgNVBAgTAkNBMRIwEAYDVQQHEwlTdW5ueXZhbGUxGDAWBgNVBAoTD015
IFRlc3QgQ29tcGFueTEWMBQGA1UEAxMNYXRoZW56LnN5bmNlcjAeFw0xNjEyMDky
MjA0NTdaFw0xNzEyMDkyMjA0NTdaMGAxCzAJBgNVBAYTAlVTMQswCQYDVQQIEwJD
QTESMBAGA1UEBxMJU3Vubnl2YWxlMRgwFgYDVQQKEw9NeSBUZXN0IENvbXBhbnkx
FjAUBgNVBAMTDWF0aGVuei5zeW5jZXIwWTATBgcqhkjOPQIBBggqhkjOPQMBBwNC
AASNMesBFJOU9IbJWk/NwzVcua/fF5xuxwI0Mp4wq3HQngE3Vdnm6Xn6gZYv0l2c
Ly9/uzog9zE68hm0fs0UhWf7o4HFMIHCMB0GA1UdDgQWBBRzUG6PZe6W5zH0hYKu
OAFCNbpU6TCBkgYDVR0jBIGKMIGHgBRzUG6PZe6W5zH0hYKuOAFCNbpU6aFkpGIw
YDELMAkGA1UEBhMCVVMxCzAJBgNVBAgTAkNBMRIwEAYDVQQHEwlTdW5ueXZhbGUx
GDAWBgNVBAoTD015IFRlc3QgQ29tcGFueTEWMBQGA1UEAxMNYXRoZW56LnN5bmNl
coIJAKxhW5mQ2i8xMAwGA1UdEwQFMAMBAf8wCQYHKoZIzj0EAQNHADBEAiBY+KCi
NMjkPod8Cx9Iufy9sfPjohEsWtjhAhLpDDgxxgIgaaKNCn7SIWYyelqyn41VMazv
4oAZqrR8bLL/qllF0bg=
-----END CERTIFICATE-----
Certificate:
    Data:
        Version: 3 (0x2)
        Serial Number: 13984162866592987568 (0xc211ba09307bb9b0)
    Signature Algorithm: sha1WithRSAEncryption
        Issuer: C=US, ST=CA, L=Sunnyvale, O=My Test Company, CN=athenz.syncer
        Validity
            Not Before: Dec  9 21:54:46 2016 GMT
            Not After : Dec  9 21:54:46 2017 GMT
        Subject: C=US, ST=CA, L=Sunnyvale, O=My Test Company, CN=athenz.syncer
        Subject Public Key Info:
            Public Key Algorithm: rsaEncryption
                Public-Key: (512 bit)
                Modulus:
                    00:d2:26:a0:47:83:ec:b5:3e:c7:ac:79:74:09:cd:
                    44:5b:6b:6d:a6:f6:cb:1a:c3:5c:55:dd:c0:a4:31:
                    94:8b:36:3d:67:cb:7a:8d:d7:ab:47:b6:6c:e5:3a:
                    91:00:e0:17:3f:c8:90:c3:77:b4:4c:83:81:0f:cd:
                    bf:47:80:6d:c9
                Exponent: 65537 (0x10001)
        X509v3 extensions:
            X509v3 Subject Key Identifier:
                06:2D:26:B0:C3:57:88:2D:97:2E:92:A3:5C:FC:F5:0C:C7:FD:3E:81
            X509v3 Authority Key Identifier:
                keyid:06:2D:26:B0:C3:57:88:2D:97:2E:92:A3:5C:FC:F5:0C:C7:FD:3E:81
                DirName:/C=US/ST=CA/L=Sunnyvale/O=My Test Company/CN=athenz.syncer
                serial:C2:11:BA:09:30:7B:B9:B0

            X509v3 Basic Constraints:
                CA:TRUE
    Signature Algorithm: sha1WithRSAEncryption
         3e:75:64:51:d8:9c:43:39:35:f3:4f:65:1c:dc:a1:4a:a6:fa:
         a7:e9:31:8c:2e:76:45:f2:3c:6d:9f:a4:00:23:a9:a4:b2:c2:
         a4:db:b7:9e:eb:a1:fb:dc:93:27:55:36:60:b8:c4:ef:be:27:
         e3:cb:bb:e2:4e:c4:12:6b:c9:dc
-----BEGIN CERTIFICATE-----
MIICfzCCAimgAwIBAgIJAMIRugkwe7mwMA0GCSqGSIb3DQEBBQUAMGAxCzAJBgNV
BAYTAlVTMQswCQYDVQQIEwJDQTESMBAGA1UEBxMJU3Vubnl2YWxlMRgwFgYDVQQK
Ew9NeSBUZXN0IENvbXBhbnkxFjAUBgNVBAMTDWF0aGVuei5zeW5jZXIwHhcNMTYx
MjA5MjE1NDQ2WhcNMTcxMjA5MjE1NDQ2WjBgMQswCQYDVQQGEwJVUzELMAkGA1UE
CBMCQ0ExEjAQBgNVBAcTCVN1bm55dmFsZTEYMBYGA1UEChMPTXkgVGVzdCBDb21w
YW55MRYwFAYDVQQDEw1hdGhlbnouc3luY2VyMFwwDQYJKoZIhvcNAQEBBQADSwAw
SAJBANImoEeD7LU+x6x5dAnNRFtrbab2yxrDXFXdwKQxlIs2PWfLeo3Xq0e2bOU6
kQDgFz/IkMN3tEyDgQ/Nv0eAbckCAwEAAaOBxTCBwjAdBgNVHQ4EFgQUBi0msMNX
iC2XLpKjXPz1DMf9PoEwgZIGA1UdIwSBijCBh4AUBi0msMNXiC2XLpKjXPz1DMf9
PoGhZKRiMGAxCzAJBgNVBAYTAlVTMQswCQYDVQQIEwJDQTESMBAGA1UEBxMJU3Vu
bnl2YWxlMRgwFgYDVQQKEw9NeSBUZXN0IENvbXBhbnkxFjAUBgNVBAMTDWF0aGVu
ei5zeW5jZXKCCQDCEboJMHu5sDAMBgNVHRMEBTADAQH/MA0GCSqGSIb3DQEBBQUA
A0EAPnVkUdicQzk1809lHNyhSqb6p+kxjC52RfI8bZ+kACOppLLCpNu3nuuh+9yT
J1U2YLjE774n48u74k7EEmvJ3A==
-----END CERTIFICATE-----
